; Function Attrs: mustprogress uwtable
define void @_ZN2cv4gapi3oak15OAKMediaAdapter6accessENS_10MediaFrame6AccessE(ptr dead_on_unwind noalias nonnull writable sret(%"class.cv::MediaFrame::View") align 8 %0, ptr nocapture noundef nonnull readonly align 8 dereferenceable(48) %1, i32 %2) unnamed_addr #0 align 2 personality ptr @__gxx_personality_v0 {
  %4 = alloca %"struct.std::array", align 8
  %5 = alloca %"struct.std::array.3", align 8
  %6 = alloca %"class.std::function", align 8
  %7 = getelementptr inbounds i8, ptr %1, i64 24
  %8 = load ptr, ptr %7, align 8
  %9 = getelementptr inbounds i8, ptr %1, i64 32
  %10 = load ptr, ptr %9, align 8
  %11 = ptrtoint ptr %10 to i64
  %12 = ptrtoint ptr %8 to i64
  %13 = sub i64 %11, %12
  %14 = udiv i64 %13, 3
  %15 = shl nuw i64 %14, 1
  %16 = getelementptr inbounds i8, ptr %8, i64 %15
  store ptr %8, ptr %4, align 8
  %17 = getelementptr inbounds i8, ptr %4, i64 8
  store ptr %16, ptr %17, align 8
  %scevgep = getelementptr inbounds i8, ptr %4, i64 16
  call void @llvm.memset.p0.i64(ptr noundef nonnull align 8 dereferenceable(16) %scevgep, i8 0, i64 16, i1 false)
  %18 = getelementptr inbounds i8, ptr %1, i64 8
  %19 = load i32, ptr %18, align 8
  %20 = sext i32 %19 to i64
  store i64 %20, ptr %5, align 8
  %21 = getelementptr inbounds i8, ptr %5, i64 8
  store i64 %20, ptr %21, align 8
  %scevgep13 = getelementptr inbounds i8, ptr %5, i64 16
  call void @llvm.memset.p0.i64(ptr noundef nonnull align 8 dereferenceable(16) %scevgep13, i8 0, i64 16, i1 false)
  %22 = getelementptr inbounds i8, ptr %6, i64 16
  %23 = getelementptr inbounds i8, ptr %6, i64 24
  call void @llvm.memset.p0.i64(ptr noundef nonnull align 8 dereferenceable(16) %6, i8 0, i64 16, i1 false)
  store ptr @_ZNSt17_Function_handlerIFvvEZN2cv10MediaFrame4ViewC1EOSt5arrayIPvLm4EEOS4_ImLm4EEOSt8functionIS0_EEd_UlvE_E9_M_invokeERKSt9_Any_data, ptr %23, align 8
  store ptr @_ZNSt17_Function_handlerIFvvEZN2cv10MediaFrame4ViewC1EOSt5arrayIPvLm4EEOS4_ImLm4EEOSt8functionIS0_EEd_UlvE_E10_M_managerERSt9_Any_dataRKSF_St18_Manager_operation, ptr %22, align 8
  invoke void @_ZN2cv10MediaFrame4ViewC1EOSt5arrayIPvLm4EEOS2_ImLm4EEOSt8functionIFvvEE(ptr noundef nonnull align 8 dereferenceable(96) %0, ptr noundef nonnull align 8 dereferenceable(32) %4, ptr noundef nonnull align 8 dereferenceable(32) %5, ptr noundef nonnull align 8 dereferenceable(32) %6)
          to label %24 unwind label %31

24:                                               ; preds = %3
  %25 = load ptr, ptr %22, align 8
  %.not.i.i = icmp eq ptr %25, null
  br i1 %.not.i.i, label %_ZNSt8functionIFvvEED2Ev.exit, label %26

26:                                               ; preds = %24
  %27 = invoke noundef zeroext i1 %25(ptr noundef nonnull align 8 dereferenceable(16) %6, ptr noundef nonnull align 8 dereferenceable(16) %6, i32 noundef 3)
          to label %_ZNSt8functionIFvvEED2Ev.exit unwind label %28

28:                                               ; preds = %26
  %29 = landingpad { ptr, i32 }
          catch ptr null
  %30 = extractvalue { ptr, i32 } %29, 0
  call void @__clang_call_terminate(ptr %30) #15
  unreachable

_ZNSt8functionIFvvEED2Ev.exit:                    ; preds = %24, %26
  ret void

31:                                               ; preds = %3
  %32 = landingpad { ptr, i32 }
          cleanup
  %33 = load ptr, ptr %22, align 8
  %.not.i.i11 = icmp eq ptr %33, null
  br i1 %.not.i.i11, label %_ZNSt8functionIFvvEED2Ev.exit12, label %34

34:                                               ; preds = %31
  %35 = invoke noundef zeroext i1 %33(ptr noundef nonnull align 8 dereferenceable(16) %6, ptr noundef nonnull align 8 dereferenceable(16) %6, i32 noundef 3)
          to label %_ZNSt8functionIFvvEED2Ev.exit12 unwind label %36

36:                                               ; preds = %34
  %37 = landingpad { ptr, i32 }
          catch ptr null
  %38 = extractvalue { ptr, i32 } %37, 0
  call void @__clang_call_terminate(ptr %38) #15
  unreachable

_ZNSt8functionIFvvEED2Ev.exit12:                  ; preds = %31, %34
  resume { ptr, i32 } %32
}